; Function Attrs: mustprogress nofree norecurse nosync nounwind memory(read, argmem: readwrite, inaccessiblemem: none) uwtable
define internal void @_ZN2cvL13momentsInTileIsilEEvRKNS_3MatEPd(ptr nocapture noundef nonnull readonly align 8 dereferenceable(96) %0, ptr nocapture noundef writeonly %1) unnamed_addr #7 {
  %3 = alloca [10 x i64], align 16
  %4 = getelementptr inbounds i8, ptr %0, i64 64
  %5 = load ptr, ptr %4, align 8
  %6 = getelementptr inbounds i8, ptr %5, i64 4
  %7 = load i32, ptr %6, align 4
  %8 = load i32, ptr %5, align 4
  call void @llvm.memset.p0.i64(ptr noundef nonnull align 16 dereferenceable(80) %3, i8 0, i64 80, i1 false)
  %9 = icmp sgt i32 %8, 0
  br i1 %9, label %.lr.ph61, label %.preheader

.lr.ph61:                                         ; preds = %2
  %10 = getelementptr inbounds i8, ptr %0, i64 16
  %11 = load ptr, ptr %10, align 8
  %12 = getelementptr inbounds i8, ptr %0, i64 72
  %13 = load ptr, ptr %12, align 8
  %14 = load i64, ptr %13, align 8
  %15 = icmp sgt i32 %7, 0
  %16 = getelementptr inbounds i8, ptr %3, i64 72
  %17 = getelementptr inbounds i8, ptr %3, i64 64
  %18 = getelementptr inbounds i8, ptr %3, i64 56
  %19 = getelementptr inbounds i8, ptr %3, i64 48
  %20 = getelementptr inbounds i8, ptr %3, i64 40
  %21 = getelementptr inbounds i8, ptr %3, i64 32
  %22 = getelementptr inbounds i8, ptr %3, i64 24
  %23 = getelementptr inbounds i8, ptr %3, i64 16
  %24 = getelementptr inbounds i8, ptr %3, i64 8
  br i1 %15, label %.lr.ph.us.preheader, label %..preheader_crit_edge

.lr.ph.us.preheader:                              ; preds = %.lr.ph61
  %wide.trip.count110 = zext nneg i32 %8 to i64
  %wide.trip.count = zext nneg i32 %7 to i64
  br label %.lr.ph.us

.lr.ph.us:                                        ; preds = %.lr.ph.us.preheader, %._crit_edge.us
  %indvars.iv107 = phi i64 [ 0, %.lr.ph.us.preheader ], [ %indvars.iv.next108, %._crit_edge.us ]
  %25 = phi i64 [ 0, %.lr.ph.us.preheader ], [ %72, %._crit_edge.us ]
  %26 = phi i64 [ 0, %.lr.ph.us.preheader ], [ %71, %._crit_edge.us ]
  %27 = phi i64 [ 0, %.lr.ph.us.preheader ], [ %70, %._crit_edge.us ]
  %28 = phi i64 [ 0, %.lr.ph.us.preheader ], [ %69, %._crit_edge.us ]
  %29 = phi i64 [ 0, %.lr.ph.us.preheader ], [ %66, %._crit_edge.us ]
  %30 = phi i64 [ 0, %.lr.ph.us.preheader ], [ %62, %._crit_edge.us ]
  %31 = phi i64 [ 0, %.lr.ph.us.preheader ], [ %61, %._crit_edge.us ]
  %32 = phi i64 [ 0, %.lr.ph.us.preheader ], [ %58, %._crit_edge.us ]
  %33 = phi i64 [ 0, %.lr.ph.us.preheader ], [ %55, %._crit_edge.us ]
  %34 = phi i64 [ 0, %.lr.ph.us.preheader ], [ %74, %._crit_edge.us ]
  %35 = mul i64 %14, %indvars.iv107
  %36 = getelementptr inbounds i8, ptr %11, i64 %35
  br label %37

37:                                               ; preds = %.lr.ph.us, %37
  %indvars.iv = phi i64 [ 0, %.lr.ph.us ], [ %indvars.iv.next, %37 ]
  %.04754.us = phi i64 [ 0, %.lr.ph.us ], [ %49, %37 ]
  %.04853.us = phi i32 [ 0, %.lr.ph.us ], [ %46, %37 ]
  %.04952.us = phi i32 [ 0, %.lr.ph.us ], [ %44, %37 ]
  %.05051.us = phi i32 [ 0, %.lr.ph.us ], [ %43, %37 ]
  %38 = getelementptr inbounds i16, ptr %36, i64 %indvars.iv
  %39 = load i16, ptr %38, align 2
  %40 = sext i16 %39 to i32
  %41 = trunc nuw nsw i64 %indvars.iv to i32
  %42 = mul nsw i32 %41, %40
  %43 = add nsw i32 %.05051.us, %40
  %44 = add nsw i32 %42, %.04952.us
  %45 = mul nsw i32 %42, %41
  %46 = add nsw i32 %45, %.04853.us
  %47 = mul nsw i32 %45, %41
  %48 = sext i32 %47 to i64
  %49 = add nsw i64 %.04754.us, %48
  %indvars.iv.next = add nuw nsw i64 %indvars.iv, 1
  %exitcond.not = icmp eq i64 %indvars.iv.next, %wide.trip.count
  br i1 %exitcond.not, label %._crit_edge.us, label %37, !llvm.loop !21

._crit_edge.us:                                   ; preds = %37
  %50 = trunc nuw nsw i64 %indvars.iv107 to i32
  %51 = mul nsw i32 %43, %50
  %52 = mul nuw nsw i64 %indvars.iv107, %indvars.iv107
  %53 = sext i32 %51 to i64
  %54 = mul nsw i64 %52, %53
  %55 = add nsw i64 %33, %54
  %56 = sext i32 %44 to i64
  %57 = mul nsw i64 %52, %56
  %58 = add nsw i64 %32, %57
  %59 = sext i32 %46 to i64
  %60 = mul nsw i64 %indvars.iv107, %59
  %61 = add nsw i64 %31, %60
  %62 = add nsw i64 %30, %49
  %63 = trunc nuw i64 %52 to i32
  %64 = mul nsw i32 %43, %63
  %65 = sext i32 %64 to i64
  %66 = add nsw i64 %29, %65
  %67 = mul nsw i32 %44, %50
  %68 = sext i32 %67 to i64
  %69 = add nsw i64 %28, %68
  %70 = add nsw i64 %27, %59
  %71 = add nsw i64 %26, %53
  %72 = add nsw i64 %25, %56
  %73 = sext i32 %43 to i64
  %74 = add nsw i64 %34, %73
  %indvars.iv.next108 = add nuw nsw i64 %indvars.iv107, 1
  %exitcond111.not = icmp eq i64 %indvars.iv.next108, %wide.trip.count110
  br i1 %exitcond111.not, label %..preheader_crit_edge, label %.lr.ph.us, !llvm.loop !22

..preheader_crit_edge:                            ; preds = %._crit_edge.us, %.lr.ph61
  %.us-phi = phi i64 [ 0, %.lr.ph61 ], [ %72, %._crit_edge.us ]
  %.us-phi81 = phi i64 [ 0, %.lr.ph61 ], [ %71, %._crit_edge.us ]
  %.us-phi82 = phi i64 [ 0, %.lr.ph61 ], [ %70, %._crit_edge.us ]
  %.us-phi83 = phi i64 [ 0, %.lr.ph61 ], [ %69, %._crit_edge.us ]
  %.us-phi84 = phi i64 [ 0, %.lr.ph61 ], [ %66, %._crit_edge.us ]
  %.us-phi85 = phi i64 [ 0, %.lr.ph61 ], [ %62, %._crit_edge.us ]
  %.us-phi86 = phi i64 [ 0, %.lr.ph61 ], [ %61, %._crit_edge.us ]
  %.us-phi87 = phi i64 [ 0, %.lr.ph61 ], [ %58, %._crit_edge.us ]
  %.us-phi88 = phi i64 [ 0, %.lr.ph61 ], [ %55, %._crit_edge.us ]
  %.us-phi89 = phi i64 [ 0, %.lr.ph61 ], [ %74, %._crit_edge.us ]
  store i64 %.us-phi88, ptr %16, align 8
  store i64 %.us-phi87, ptr %17, align 16
  store i64 %.us-phi86, ptr %18, align 8
  store i64 %.us-phi85, ptr %19, align 16
  store i64 %.us-phi84, ptr %20, align 8
  store i64 %.us-phi83, ptr %21, align 16
  store i64 %.us-phi82, ptr %22, align 8
  store i64 %.us-phi81, ptr %23, align 16
  store i64 %.us-phi, ptr %24, align 8
  br label %.preheader

.preheader:                                       ; preds = %..preheader_crit_edge, %2
  %.lcssa = phi i64 [ %.us-phi89, %..preheader_crit_edge ], [ 0, %2 ]
  store i64 %.lcssa, ptr %3, align 16
  br label %75

75:                                               ; preds = %.preheader, %75
  %indvars.iv112 = phi i64 [ 0, %.preheader ], [ %indvars.iv.next113, %75 ]
  %76 = getelementptr inbounds [10 x i64], ptr %3, i64 0, i64 %indvars.iv112
  %77 = load i64, ptr %76, align 8
  %78 = sitofp i64 %77 to double
  %79 = getelementptr inbounds double, ptr %1, i64 %indvars.iv112
  store double %78, ptr %79, align 8
  %indvars.iv.next113 = add nuw nsw i64 %indvars.iv112, 1
  %exitcond115.not = icmp eq i64 %indvars.iv.next113, 10
  br i1 %exitcond115.not, label %80, label %75, !llvm.loop !23

80:                                               ; preds = %75
  ret void
}